#include <math.h>
#include <stdio.h>
#include <stdlib.h>
#include <string.h>

int main()
{
    int w,b[20],i,sum[20];
	scanf("%d",&w);
	int a[12]={0,31,28,31,30,31,30,31,31,30,31,30};
	for(i=0;i<12;i++)
	{
		if(i==0)
		{sum[i]=0;
		b[i]=(sum[i]+w-1+13)%7;
		}
		else
		{
		sum[i]=a[i]+sum[i-1];
		b[i]=(sum[i]+w-1+13)%7;
		}
		if (b[i]==5)
		{printf("%d\n",i+1);
		}
	}
	return 0;
}
